Certificate:
    Data:
        Version: 3 (0x2)
        Serial Number:
            6a:f1:35:41:39:bd:53:5e:34:7d:ea:10:87:2d:91:50:ef:da:16:7a
        Signature Algorithm: sha256WithRSAEncryption
        Issuer: C=DE, ST=NRW, L=Bochum, O=RUB, OU=NDS, CN=NDS CA
        Validity
            Not Before: Feb 19 16:37:00 2024 GMT
            Not After : Dec  9 16:37:00 2026 GMT
        Subject: C=DE, ST=NRW, L=Bochum, O=RUB, OU=NDS, CN=example.com
        Subject Public Key Info:
            Public Key Algorithm: rsaEncryption
                Public-Key: (2048 bit)
                Modulus:
                    00:ac:01:d9:bc:d7:ed:81:7c:4b:c2:05:20:5c:af:
                    7b:1a:64:e0:09:df:b6:a5:b7:30:b5:e1:d0:83:08:
                    ca:e8:9e:5d:c2:a6:84:63:f4:d5:b7:ac:5c:43:09:
                    1e:98:2b:a4:63:9f:e8:a5:dd:9f:db:2a:8d:67:a4:
                    4d:b0:7a:36:28:e9:5b:81:3c:71:ba:30:bb:b1:e0:
                    1e:51:6f:d5:b7:88:bd:d7:89:6b:b2:3b:d7:c8:41:
                    d5:0f:c0:44:67:3c:cc:b6:cb:5b:db:d5:44:2f:47:
                    31:48:05:4e:a1:a4:d8:d5:8d:60:76:cd:3a:5b:ac:
                    5f:2e:59:91:1c:47:82:70:6d:ca:4b:8e:ba:e7:3b:
                    33:fe:42:8f:09:56:e7:9d:57:ba:25:5a:53:95:91:
                    d9:f5:94:a1:0d:7b:0a:53:b0:81:11:da:50:d1:ac:
                    e8:96:d0:2f:9c:3c:fa:7c:f1:a7:30:e0:06:be:12:
                    98:0b:d8:7f:20:e7:46:53:cf:71:e3:f8:2b:d6:0d:
                    e2:8f:70:67:3e:52:7c:67:8c:26:52:10:73:14:5b:
                    70:07:83:17:b7:c6:99:58:c7:5b:34:57:8c:25:23:
                    db:a3:a4:18:5a:84:f6:7c:d6:4c:9e:e6:73:c7:16:
                    06:ea:3c:1a:67:7a:18:22:4e:4a:93:e5:34:c5:dd:
                    10:97
                Exponent: 65537 (0x10001)
        X509v3 extensions:
            X509v3 Basic Constraints: 
                CA:FALSE
            X509v3 Subject Alternative Name: 
                DNS:example.com, DNS:192.168.0.20.xip.io, DNS:*.192.168.0.20.xip.io, DNS:192.168.65.2.xip.io, DNS:*.192.168.65.2.xip.io
            X509v3 Subject Key Identifier: 
                A0:64:1A:8A:1B:FB:F6:1C:8A:5F:91:11:BF:87:BC:5E:B8:DF:63:32
            X509v3 Authority Key Identifier: 
                93:CD:A2:2B:5B:E1:41:CC:CD:AB:A6:A1:C3:C1:0F:E4:A0:06:FF:93
    Signature Algorithm: sha256WithRSAEncryption
    Signature Value:
        a8:ed:4e:a6:9f:13:25:8e:a6:fe:77:64:70:2a:97:9e:99:62:
        b0:1c:1d:e4:f4:bb:3d:a4:c0:26:dd:6f:ed:ec:a4:2f:af:eb:
        73:4a:51:fd:5f:7f:7c:3d:2b:75:ad:15:06:8d:bd:2b:2e:51:
        00:31:07:fc:19:4c:67:c3:34:8f:77:f2:a6:84:93:32:db:d0:
        73:dd:3e:e7:f3:56:39:cc:07:99:33:58:04:b5:7d:eb:6b:a1:
        23:88:df:fa:94:02:d0:64:86:20:21:bf:c7:87:71:c2:f1:f9:
        76:7f:15:8b:5c:01:be:f5:74:2d:23:f3:ab:4f:ae:7e:01:e4:
        17:d6:c9:8f:03:e0:2d:dc:49:a8:97:fb:54:fa:dc:44:e1:a3:
        d9:f2:f0:f5:3b:1b:85:1a:25:3b:13:f2:d5:f6:a5:9a:02:28:
        b2:7c:ca:a2:71:8d:18:65:8a:87:59:de:ae:c9:de:51:e9:29:
        ad:e8:0d:96:80:8a:a2:49:64:14:51:41:eb:3d:f8:20:ea:c3:
        e7:e6:cc:07:be:d2:03:30:ab:34:34:ed:05:0d:09:bc:be:42:
        f3:5c:d0:bc:d3:29:37:9d:8c:b1:4a:b5:d1:90:de:ee:be:ee:
        02:15:ef:79:ee:85:1d:87:32:4f:01:08:be:db:89:ed:76:40:
        aa:af:5a:76
-----BEGIN CERTIFICATE-----
MIIEBDCCAuygAwIBAgIUavE1QTm9U140feoQhy2RUO/aFnowDQYJKoZIhvcNAQEL
BQAwWTELMAkGA1UEBhMCREUxDDAKBgNVBAgMA05SVzEPMA0GA1UEBwwGQm9jaHVt
MQwwCgYDVQQKDANSVUIxDDAKBgNVBAsMA05EUzEPMA0GA1UEAwwGTkRTIENBMB4X
DTI0MDIxOTE2MzcwMFoXDTI2MTIwOTE2MzcwMFowXjELMAkGA1UEBhMCREUxDDAK
BgNVBAgMA05SVzEPMA0GA1UEBwwGQm9jaHVtMQwwCgYDVQQKDANSVUIxDDAKBgNV
BAsMA05EUzEUMBIGA1UEAwwLZXhhbXBsZS5jb20wggEiMA0GCSqGSIb3DQEBAQUA
A4IBDwAwggEKAoIBAQCsAdm81+2BfEvCBSBcr3saZOAJ37altzC14dCDCMronl3C
poRj9NW3rFxDCR6YK6Rjn+il3Z/bKo1npE2wejYo6VuBPHG6MLux4B5Rb9W3iL3X
iWuyO9fIQdUPwERnPMy2y1vb1UQvRzFIBU6hpNjVjWB2zTpbrF8uWZEcR4JwbcpL
jrrnOzP+Qo8JVuedV7olWlOVkdn1lKENewpTsIER2lDRrOiW0C+cPPp88acw4Aa+
EpgL2H8g50ZTz3Hj+CvWDeKPcGc+UnxnjCZSEHMUW3AHgxe3xplYx1s0V4wlI9uj
pBhahPZ81kye5nPHFgbqPBpnehgiTkqT5TTF3RCXAgMBAAGjgb4wgbswCQYDVR0T
BAIwADBuBgNVHREEZzBlggtleGFtcGxlLmNvbYITMTkyLjE2OC4wLjIwLnhpcC5p
b4IVKi4xOTIuMTY4LjAuMjAueGlwLmlvghMxOTIuMTY4LjY1LjIueGlwLmlvghUq
LjE5Mi4xNjguNjUuMi54aXAuaW8wHQYDVR0OBBYEFKBkGoob+/Ycil+REb+HvF64
32MyMB8GA1UdIwQYMBaAFJPNoitb4UHMzaumocPBD+SgBv+TMA0GCSqGSIb3DQEB
CwUAA4IBAQCo7U6mnxMljqb+d2RwKpeemWKwHB3k9Ls9pMAm3W/t7KQvr+tzSlH9
X398PSt1rRUGjb0rLlEAMQf8GUxnwzSPd/KmhJMy29Bz3T7n81Y5zAeZM1gEtX3r
a6EjiN/6lALQZIYgIb/Hh3HC8fl2fxWLXAG+9XQtI/OrT65+AeQX1smPA+At3Emo
l/tU+txE4aPZ8vD1OxuFGiU7E/LV9qWaAiiyfMqicY0YZYqHWd6uyd5R6Smt6A2W
gIqiSWQUUUHrPfgg6sPn5swHvtIDMKs0NO0FDQm8vkLzXNC80yk3nYyxSrXRkN7u
vu4CFe957oUdhzJPAQi+24ntdkCqr1p2
-----END CERTIFICATE-----
